target datalayout = "e-m:e-p270:32:32-p271:32:32-p272:64:64-i64:64-i128:128-f80:128-n8:16:32:64-S128"
target triple = "x86_64-pc-linux-gnu"

%struct.hwloc_topology = type { i32, i32, i32, ptr, ptr, i64, [20 x i32], [20 x i32], i64, i64, i32, ptr, i64, ptr, i64, [6 x %struct.hwloc_special_level_s], ptr, ptr, %struct.hwloc_binding_hooks, %struct.hwloc_topology_support, %struct.hwloc_infos_s, ptr, ptr, i32, ptr, ptr, i32, i32, ptr, i32, i32, ptr, i32, i32, i32, [5 x float], i32, ptr, ptr, i32, i32, ptr, i32, %struct.hwloc_numanode_attr_s, i32, i32, ptr, i64, i32, ptr, ptr, ptr }
%struct.hwloc_special_level_s = type { i32, ptr, ptr, ptr }
%struct.hwloc_binding_hooks = type { ptr, ptr, ptr, ptr, ptr, ptr, ptr, ptr, ptr, ptr, ptr, ptr, ptr, ptr, ptr, ptr, ptr, ptr, ptr, ptr, ptr, ptr, ptr, ptr }
%struct.hwloc_topology_support = type { ptr, ptr, ptr, ptr }
%struct.hwloc_infos_s = type { ptr, i32, i32 }
%struct.hwloc_numanode_attr_s = type { i64, i32, ptr }

; Function Attrs: nounwind uwtable
define internal ptr @hwloc_fix_cpubind(ptr noundef %0, ptr noundef %1) #0 {
  %3 = alloca ptr, align 8
  %4 = alloca ptr, align 8
  %5 = alloca ptr, align 8
  %6 = alloca ptr, align 8
  %7 = alloca ptr, align 8
  %8 = alloca i32, align 4
  store ptr %0, ptr %4, align 8, !tbaa !3
  store ptr %1, ptr %5, align 8, !tbaa !8
  call void @llvm.lifetime.start.p0(i64 8, ptr %6) #9
  %9 = load ptr, ptr %4, align 8, !tbaa !3
  %10 = call ptr @hwloc_topology_get_topology_cpuset(ptr noundef %9) #10
  store ptr %10, ptr %6, align 8, !tbaa !8
  call void @llvm.lifetime.start.p0(i64 8, ptr %7) #9
  %11 = load ptr, ptr %4, align 8, !tbaa !3
  %12 = call ptr @hwloc_topology_get_complete_cpuset(ptr noundef %11) #10
  store ptr %12, ptr %7, align 8, !tbaa !8
  %13 = load ptr, ptr %5, align 8, !tbaa !8
  %14 = call i32 @hwloc_bitmap_iszero(ptr noundef %13) #10
  %15 = icmp ne i32 %14, 0
  br i1 %15, label %16, label %18

16:                                               ; preds = %2
  %17 = call ptr @__errno_location() #8
  store i32 22, ptr %17, align 4, !tbaa !10
  store ptr null, ptr %3, align 8
  store i32 1, ptr %8, align 4
  br label %34

18:                                               ; preds = %2
  %19 = load ptr, ptr %5, align 8, !tbaa !8
  %20 = load ptr, ptr %7, align 8, !tbaa !8
  %21 = call i32 @hwloc_bitmap_isincluded(ptr noundef %19, ptr noundef %20) #10
  %22 = icmp ne i32 %21, 0
  br i1 %22, label %25, label %23

23:                                               ; preds = %18
  %24 = call ptr @__errno_location() #8
  store i32 22, ptr %24, align 4, !tbaa !10
  store ptr null, ptr %3, align 8
  store i32 1, ptr %8, align 4
  br label %34

25:                                               ; preds = %18
  %26 = load ptr, ptr %6, align 8, !tbaa !8
  %27 = load ptr, ptr %5, align 8, !tbaa !8
  %28 = call i32 @hwloc_bitmap_isincluded(ptr noundef %26, ptr noundef %27) #10
  %29 = icmp ne i32 %28, 0
  br i1 %29, label %30, label %32

30:                                               ; preds = %25
  %31 = load ptr, ptr %7, align 8, !tbaa !8
  store ptr %31, ptr %5, align 8, !tbaa !8
  br label %32

32:                                               ; preds = %30, %25
  %33 = load ptr, ptr %5, align 8, !tbaa !8
  store ptr %33, ptr %3, align 8
  store i32 1, ptr %8, align 4
  br label %34

34:                                               ; preds = %32, %23, %16
  call void @llvm.lifetime.end.p0(i64 8, ptr %7) #9
  call void @llvm.lifetime.end.p0(i64 8, ptr %6) #9
  %35 = load ptr, ptr %3, align 8
  ret ptr %35
}

; Function Attrs: nounwind uwtable
define i32 @hwloc_set_cpubind(ptr noundef %0, ptr noundef %1, i32 noundef %2) #0 {
  %4 = alloca i32, align 4
  %5 = alloca ptr, align 8
  %6 = alloca ptr, align 8
  %7 = alloca i32, align 4
  %8 = alloca i32, align 4
  %9 = alloca i32, align 4
  store ptr %0, ptr %5, align 8, !tbaa !3
  store ptr %1, ptr %6, align 8, !tbaa !8
  store i32 %2, ptr %7, align 4, !tbaa !10
  %10 = load i32, ptr %7, align 4, !tbaa !10
  %11 = and i32 %10, -16
  %12 = icmp ne i32 %11, 0
  br i1 %12, label %13, label %15

13:                                               ; preds = %3
  %14 = call ptr @__errno_location() #8
  store i32 22, ptr %14, align 4, !tbaa !10
  store i32 -1, ptr %4, align 4
  br label %108

15:                                               ; preds = %3
  %16 = load ptr, ptr %5, align 8, !tbaa !3
  %17 = load ptr, ptr %6, align 8, !tbaa !8
  %18 = call ptr @hwloc_fix_cpubind(ptr noundef %16, ptr noundef %17)
  store ptr %18, ptr %6, align 8, !tbaa !8
  %19 = load ptr, ptr %6, align 8, !tbaa !8
  %20 = icmp ne ptr %19, null
  br i1 %20, label %22, label %21

21:                                               ; preds = %15
  store i32 -1, ptr %4, align 4
  br label %108

22:                                               ; preds = %15
  %23 = load i32, ptr %7, align 4, !tbaa !10
  %24 = and i32 %23, 1
  %25 = icmp ne i32 %24, 0
  br i1 %25, label %26, label %42

26:                                               ; preds = %22
  %27 = load ptr, ptr %5, align 8, !tbaa !3
  %28 = getelementptr inbounds nuw %struct.hwloc_topology, ptr %27, i32 0, i32 18
  %29 = getelementptr inbounds nuw %struct.hwloc_binding_hooks, ptr %28, i32 0, i32 0
  %30 = load ptr, ptr %29, align 8, !tbaa !12
  %31 = icmp ne ptr %30, null
  br i1 %31, label %32, label %41

32:                                               ; preds = %26
  %33 = load ptr, ptr %5, align 8, !tbaa !3
  %34 = getelementptr inbounds nuw %struct.hwloc_topology, ptr %33, i32 0, i32 18
  %35 = getelementptr inbounds nuw %struct.hwloc_binding_hooks, ptr %34, i32 0, i32 0
  %36 = load ptr, ptr %35, align 8, !tbaa !12
  %37 = load ptr, ptr %5, align 8, !tbaa !3
  %38 = load ptr, ptr %6, align 8, !tbaa !8
  %39 = load i32, ptr %7, align 4, !tbaa !10
  %40 = call i32 %36(ptr noundef %37, ptr noundef %38, i32 noundef %39)
  store i32 %40, ptr %4, align 4
  br label %108

41:                                               ; preds = %26
  br label %106

42:                                               ; preds = %22
  %43 = load i32, ptr %7, align 4, !tbaa !10
  %44 = and i32 %43, 2
  %45 = icmp ne i32 %44, 0
  br i1 %45, label %46, label %62

46:                                               ; preds = %42
  %47 = load ptr, ptr %5, align 8, !tbaa !3
  %48 = getelementptr inbounds nuw %struct.hwloc_topology, ptr %47, i32 0, i32 18
  %49 = getelementptr inbounds nuw %struct.hwloc_binding_hooks, ptr %48, i32 0, i32 2
  %50 = load ptr, ptr %49, align 8, !tbaa !35
  %51 = icmp ne ptr %50, null
  br i1 %51, label %52, label %61

52:                                               ; preds = %46
  %53 = load ptr, ptr %5, align 8, !tbaa !3
  %54 = getelementptr inbounds nuw %struct.hwloc_topology, ptr %53, i32 0, i32 18
  %55 = getelementptr inbounds nuw %struct.hwloc_binding_hooks, ptr %54, i32 0, i32 2
  %56 = load ptr, ptr %55, align 8, !tbaa !35
  %57 = load ptr, ptr %5, align 8, !tbaa !3
  %58 = load ptr, ptr %6, align 8, !tbaa !8
  %59 = load i32, ptr %7, align 4, !tbaa !10
  %60 = call i32 %56(ptr noundef %57, ptr noundef %58, i32 noundef %59)
  store i32 %60, ptr %4, align 4
  br label %108

61:                                               ; preds = %46
  br label %105

62:                                               ; preds = %42
  %63 = load ptr, ptr %5, align 8, !tbaa !3
  %64 = getelementptr inbounds nuw %struct.hwloc_topology, ptr %63, i32 0, i32 18
  %65 = getelementptr inbounds nuw %struct.hwloc_binding_hooks, ptr %64, i32 0, i32 0
  %66 = load ptr, ptr %65, align 8, !tbaa !12
  %67 = icmp ne ptr %66, null
  br i1 %67, label %68, label %89

68:                                               ; preds = %62
  call void @llvm.lifetime.start.p0(i64 4, ptr %8) #9
  %69 = load ptr, ptr %5, align 8, !tbaa !3
  %70 = getelementptr inbounds nuw %struct.hwloc_topology, ptr %69, i32 0, i32 18
  %71 = getelementptr inbounds nuw %struct.hwloc_binding_hooks, ptr %70, i32 0, i32 0
  %72 = load ptr, ptr %71, align 8, !tbaa !12
  %73 = load ptr, ptr %5, align 8, !tbaa !3
  %74 = load ptr, ptr %6, align 8, !tbaa !8
  %75 = load i32, ptr %7, align 4, !tbaa !10
  %76 = call i32 %72(ptr noundef %73, ptr noundef %74, i32 noundef %75)
  store i32 %76, ptr %8, align 4, !tbaa !10
  %77 = load i32, ptr %8, align 4, !tbaa !10
  %78 = icmp sge i32 %77, 0
  br i1 %78, label %83, label %79

79:                                               ; preds = %68
  %80 = call ptr @__errno_location() #8
  %81 = load i32, ptr %80, align 4, !tbaa !10
  %82 = icmp ne i32 %81, 38
  br i1 %82, label %83, label %85

83:                                               ; preds = %79, %68
  %84 = load i32, ptr %8, align 4, !tbaa !10
  store i32 %84, ptr %4, align 4
  store i32 1, ptr %9, align 4
  br label %86

85:                                               ; preds = %79
  store i32 0, ptr %9, align 4
  br label %86

86:                                               ; preds = %85, %83
  call void @llvm.lifetime.end.p0(i64 4, ptr %8) #9
  %87 = load i32, ptr %9, align 4
  switch i32 %87, label %110 [
    i32 0, label %88
    i32 1, label %108
  ]

88:                                               ; preds = %86
  br label %89

89:                                               ; preds = %88, %62
  %90 = load ptr, ptr %5, align 8, !tbaa !3
  %91 = getelementptr inbounds nuw %struct.hwloc_topology, ptr %90, i32 0, i32 18
  %92 = getelementptr inbounds nuw %struct.hwloc_binding_hooks, ptr %91, i32 0, i32 2
  %93 = load ptr, ptr %92, align 8, !tbaa !35
  %94 = icmp ne ptr %93, null
  br i1 %94, label %95, label %104

95:                                               ; preds = %89
  %96 = load ptr, ptr %5, align 8, !tbaa !3
  %97 = getelementptr inbounds nuw %struct.hwloc_topology, ptr %96, i32 0, i32 18
  %98 = getelementptr inbounds nuw %struct.hwloc_binding_hooks, ptr %97, i32 0, i32 2
  %99 = load ptr, ptr %98, align 8, !tbaa !35
  %100 = load ptr, ptr %5, align 8, !tbaa !3
  %101 = load ptr, ptr %6, align 8, !tbaa !8
  %102 = load i32, ptr %7, align 4, !tbaa !10
  %103 = call i32 %99(ptr noundef %100, ptr noundef %101, i32 noundef %102)
  store i32 %103, ptr %4, align 4
  br label %108

104:                                              ; preds = %89
  br label %105

105:                                              ; preds = %104, %61
  br label %106

106:                                              ; preds = %105, %41
  %107 = call ptr @__errno_location() #8
  store i32 38, ptr %107, align 4, !tbaa !10
  store i32 -1, ptr %4, align 4
  br label %108

108:                                              ; preds = %106, %95, %86, %52, %32, %21, %13
  %109 = load i32, ptr %4, align 4
  ret i32 %109

110:                                              ; preds = %86
  unreachable
}