; Function Attrs: nounwind uwtable
define i32 @hwloc_set_cpubind(ptr noundef %0, ptr noundef %1, i32 noundef %2) local_unnamed_addr #0 {
  %.not = icmp ult i32 %2, 16
  br i1 %.not, label %6, label %4

4:                                                ; preds = %3
  %5 = tail call ptr @__errno_location() #12
  store i32 22, ptr %5, align 4, !tbaa !3
  br label %hwloc_fix_cpubind.exit.thread

6:                                                ; preds = %3
  %7 = tail call ptr @hwloc_topology_get_topology_cpuset(ptr noundef readonly %0) #13
  %8 = tail call ptr @hwloc_topology_get_complete_cpuset(ptr noundef readonly %0) #13
  %9 = tail call i32 @hwloc_bitmap_iszero(ptr noundef readonly %1) #13
  %.not.i = icmp eq i32 %9, 0
  br i1 %.not.i, label %12, label %10

10:                                               ; preds = %6
  %11 = tail call ptr @__errno_location() #12
  store i32 22, ptr %11, align 4, !tbaa !3
  br label %hwloc_fix_cpubind.exit.thread

12:                                               ; preds = %6
  %13 = tail call i32 @hwloc_bitmap_isincluded(ptr noundef readonly %1, ptr noundef %8) #13
  %.not11.i = icmp eq i32 %13, 0
  br i1 %.not11.i, label %14, label %hwloc_fix_cpubind.exit

14:                                               ; preds = %12
  %15 = tail call ptr @__errno_location() #12
  store i32 22, ptr %15, align 4, !tbaa !3
  br label %hwloc_fix_cpubind.exit.thread

hwloc_fix_cpubind.exit:                           ; preds = %12
  %16 = tail call i32 @hwloc_bitmap_isincluded(ptr noundef %7, ptr noundef readonly %1) #13
  %.not12.i = icmp eq i32 %16, 0
  %spec.select.i = select i1 %.not12.i, ptr %1, ptr %8
  %.not35 = icmp eq ptr %spec.select.i, null
  br i1 %.not35, label %hwloc_fix_cpubind.exit.thread, label %17

17:                                               ; preds = %hwloc_fix_cpubind.exit
  %18 = and i32 %2, 1
  %.not36 = icmp eq i32 %18, 0
  br i1 %.not36, label %24, label %19

19:                                               ; preds = %17
  %20 = getelementptr inbounds nuw i8, ptr %0, i64 464
  %21 = load ptr, ptr %20, align 8, !tbaa !7
  %.not42 = icmp eq ptr %21, null
  br i1 %.not42, label %45, label %22

22:                                               ; preds = %19
  %23 = tail call i32 %21(ptr noundef nonnull %0, ptr noundef nonnull %spec.select.i, i32 noundef %2) #14
  br label %hwloc_fix_cpubind.exit.thread

24:                                               ; preds = %17
  %25 = and i32 %2, 2
  %.not37 = icmp eq i32 %25, 0
  br i1 %.not37, label %31, label %26

26:                                               ; preds = %24
  %27 = getelementptr inbounds nuw i8, ptr %0, i64 480
  %28 = load ptr, ptr %27, align 8, !tbaa !32
  %.not41 = icmp eq ptr %28, null
  br i1 %.not41, label %45, label %29

29:                                               ; preds = %26
  %30 = tail call i32 %28(ptr noundef nonnull %0, ptr noundef nonnull %spec.select.i, i32 noundef %2) #14
  br label %hwloc_fix_cpubind.exit.thread

31:                                               ; preds = %24
  %32 = getelementptr inbounds nuw i8, ptr %0, i64 464
  %33 = load ptr, ptr %32, align 8, !tbaa !7
  %.not38 = icmp eq ptr %33, null
  br i1 %.not38, label %40, label %34

34:                                               ; preds = %31
  %35 = tail call i32 %33(ptr noundef nonnull %0, ptr noundef nonnull %spec.select.i, i32 noundef %2) #14
  %36 = icmp sgt i32 %35, -1
  br i1 %36, label %hwloc_fix_cpubind.exit.thread, label %37

37:                                               ; preds = %34
  %38 = tail call ptr @__errno_location() #12
  %39 = load i32, ptr %38, align 4, !tbaa !3
  %.not39 = icmp eq i32 %39, 38
  br i1 %.not39, label %40, label %hwloc_fix_cpubind.exit.thread

40:                                               ; preds = %37, %31
  %41 = getelementptr inbounds nuw i8, ptr %0, i64 480
  %42 = load ptr, ptr %41, align 8, !tbaa !32
  %.not40 = icmp eq ptr %42, null
  br i1 %.not40, label %45, label %43

43:                                               ; preds = %40
  %44 = tail call i32 %42(ptr noundef nonnull %0, ptr noundef nonnull %spec.select.i, i32 noundef %2) #14
  br label %hwloc_fix_cpubind.exit.thread

45:                                               ; preds = %26, %40, %19
  %46 = tail call ptr @__errno_location() #12
  store i32 38, ptr %46, align 4, !tbaa !3
  br label %hwloc_fix_cpubind.exit.thread

hwloc_fix_cpubind.exit.thread:                    ; preds = %37, %34, %14, %10, %hwloc_fix_cpubind.exit, %45, %43, %29, %22, %4
  %.029 = phi i32 [ -1, %4 ], [ %23, %22 ], [ -1, %45 ], [ %30, %29 ], [ %44, %43 ], [ -1, %hwloc_fix_cpubind.exit ], [ -1, %10 ], [ -1, %14 ], [ %35, %34 ], [ %35, %37 ]
  ret i32 %.029
}